target datalayout = "e-m:e-p270:32:32-p271:32:32-p272:64:64-i64:64-i128:128-f80:128-n8:16:32:64-S128"
target triple = "x86_64-pc-linux-gnu"

%struct.ossl_encoder_ctx_st = type { i32, ptr, ptr, ptr, ptr, ptr, ptr, %struct.ossl_passphrase_data_st }
%struct.ossl_passphrase_data_st = type { i32, %union.anon, i8, ptr, i64 }
%union.anon = type { %struct.anon }
%struct.anon = type { ptr, i64 }

@.str = private unnamed_addr constant [46 x i8] c"../openssl/crypto/encode_decode/encoder_lib.c\00", align 1
@__func__.OSSL_ENCODER_CTX_set_selection = private unnamed_addr constant [31 x i8] c"OSSL_ENCODER_CTX_set_selection\00", align 1

; Function Attrs: nounwind uwtable
define i32 @OSSL_ENCODER_CTX_set_selection(ptr noundef %0, i32 noundef %1) #0 {
  %3 = alloca i32, align 4
  %4 = alloca ptr, align 8
  %5 = alloca i32, align 4
  store ptr %0, ptr %4, align 8, !tbaa !3
  store i32 %1, ptr %5, align 4, !tbaa !32
  %6 = load ptr, ptr %4, align 8, !tbaa !3
  %7 = icmp ne ptr %6, null
  %8 = zext i1 %7 to i32
  %9 = icmp ne i32 %8, 0
  %10 = xor i1 %9, true
  %11 = xor i1 %10, true
  %12 = zext i1 %11 to i32
  %13 = sext i32 %12 to i64
  %14 = call i64 @llvm.expect.i64(i64 %13, i64 1)
  %15 = icmp ne i64 %14, 0
  br i1 %15, label %17, label %16

16:                                               ; preds = %2
  call void @ERR_new()
  call void @ERR_set_debug(ptr noundef @.str, i32 noundef 173, ptr noundef @__func__.OSSL_ENCODER_CTX_set_selection)
  call void (i32, i32, ptr, ...) @ERR_set_error(i32 noundef 59, i32 noundef 786690, ptr noundef null)
  store i32 0, ptr %3, align 4
  br label %33

17:                                               ; preds = %2
  %18 = load i32, ptr %5, align 4, !tbaa !32
  %19 = icmp ne i32 %18, 0
  %20 = zext i1 %19 to i32
  %21 = icmp ne i32 %20, 0
  %22 = xor i1 %21, true
  %23 = xor i1 %22, true
  %24 = zext i1 %23 to i32
  %25 = sext i32 %24 to i64
  %26 = call i64 @llvm.expect.i64(i64 %25, i64 1)
  %27 = icmp ne i64 %26, 0
  br i1 %27, label %29, label %28

28:                                               ; preds = %17
  call void @ERR_new()
  call void @ERR_set_debug(ptr noundef @.str, i32 noundef 178, ptr noundef @__func__.OSSL_ENCODER_CTX_set_selection)
  call void (i32, i32, ptr, ...) @ERR_set_error(i32 noundef 59, i32 noundef 524550, ptr noundef null)
  store i32 0, ptr %3, align 4
  br label %33

29:                                               ; preds = %17
  %30 = load i32, ptr %5, align 4, !tbaa !32
  %31 = load ptr, ptr %4, align 8, !tbaa !3
  %32 = getelementptr inbounds nuw %struct.ossl_encoder_ctx_st, ptr %31, i32 0, i32 0
  store i32 %30, ptr %32, align 8, !tbaa !57
  store i32 1, ptr %3, align 4
  br label %33

33:                                               ; preds = %29, %28, %16
  %34 = load i32, ptr %3, align 4
  ret i32 %34
}