; Function Attrs: nounwind uwtable
define range(i32 0, 2) i32 @OSSL_ENCODER_CTX_set_selection(ptr noundef writeonly captures(address_is_null) %0, i32 noundef %1) local_unnamed_addr #0 {
  %.not = icmp eq ptr %0, null
  br i1 %.not, label %3, label %4, !prof !40

3:                                                ; preds = %2
  tail call void @ERR_new() #8
  tail call void @ERR_set_debug(ptr noundef nonnull @.str, i32 noundef 173, ptr noundef nonnull @__func__.OSSL_ENCODER_CTX_set_selection) #8
  tail call void (i32, i32, ptr, ...) @ERR_set_error(i32 noundef 59, i32 noundef 786690, ptr noundef null) #8
  br label %7

4:                                                ; preds = %2
  %.not6 = icmp eq i32 %1, 0
  br i1 %.not6, label %5, label %6, !prof !40

5:                                                ; preds = %4
  tail call void @ERR_new() #8
  tail call void @ERR_set_debug(ptr noundef nonnull @.str, i32 noundef 178, ptr noundef nonnull @__func__.OSSL_ENCODER_CTX_set_selection) #8
  tail call void (i32, i32, ptr, ...) @ERR_set_error(i32 noundef 59, i32 noundef 524550, ptr noundef null) #8
  br label %7

6:                                                ; preds = %4
  store i32 %1, ptr %0, align 8, !tbaa !53
  br label %7

7:                                                ; preds = %6, %5, %3
  %.0 = phi i32 [ 1, %6 ], [ 0, %5 ], [ 0, %3 ]
  ret i32 %.0
}